---
triple:          'arm64-apple-darwin'
binary-path:     '/Users/vrindavan/Code/advent-of-code/2023/day1_part2'
relocations:
  - { offsetInCU: 0xC3, offset: 0xC3, size: 0x8, addend: 0x0, symName: __ZSt23__is_constant_evaluatedv, symObjAddr: 0x0, symBinAddr: 0x1000022B8, symSize: 0x8 }
  - { offsetInCU: 0x219D, offset: 0x219D, size: 0x8, addend: 0x0, symName: __Z7isdigiti, symObjAddr: 0x70, symBinAddr: 0x100002328, symSize: 0x20 }
  - { offsetInCU: 0x21A5, offset: 0x21A5, size: 0x8, addend: 0x0, symName: __ZnwmPv, symObjAddr: 0x90, symBinAddr: 0x100002348, symSize: 0x18 }
  - { offsetInCU: 0x6D7A, offset: 0x6D7A, size: 0x8, addend: 0x0, symName: __ZStL8__ioinit, symObjAddr: 0x34EA8, symBinAddr: 0x10000C270, symSize: 0x0 }
  - { offsetInCU: 0xA71C, offset: 0xA71C, size: 0x8, addend: 0x0, symName: __ZNSt8__detail30__integer_to_chars_is_unsignedIjEE, symObjAddr: 0x3C78, symBinAddr: 0x100006492, symSize: 0x0 }
  - { offsetInCU: 0xA736, offset: 0xA736, size: 0x8, addend: 0x0, symName: __ZNSt8__detail30__integer_to_chars_is_unsignedImEE, symObjAddr: 0x3C79, symBinAddr: 0x100006493, symSize: 0x0 }
  - { offsetInCU: 0xA750, offset: 0xA750, size: 0x8, addend: 0x0, symName: __ZNSt8__detail30__integer_to_chars_is_unsignedIyEE, symObjAddr: 0x3C7A, symBinAddr: 0x100006494, symSize: 0x0 }
  - { offsetInCU: 0xA77D, offset: 0xA77D, size: 0x8, addend: 0x0, symName: __GLOBAL__sub_I_day1_part2.cpp, symObjAddr: 0x3854, symBinAddr: 0x100005B0C, symSize: 0x14 }
  - { offsetInCU: 0xA7A3, offset: 0xA7A3, size: 0x8, addend: 0x0, symName: __Z41__static_initialization_and_destruction_0v, symObjAddr: 0x3818, symBinAddr: 0x100005AD0, symSize: 0x3C }
  - { offsetInCU: 0xA7AB, offset: 0xA7AB, size: 0x8, addend: 0x0, symName: __GLOBAL__sub_I_day1_part2.cpp, symObjAddr: 0x3854, symBinAddr: 0x100005B0C, symSize: 0x14 }
  - { offsetInCU: 0xA8A2, offset: 0xA8A2, size: 0x8, addend: 0x0, symName: __ZSt19__relocate_object_aINSt7__cxx1112basic_stringIcSt11char_traitsIcESaIcEEES5_SaIS5_EEvPT_PT0_RT1_, symObjAddr: 0x3748, symBinAddr: 0x100005A00, symSize: 0xD0 }
  - { offsetInCU: 0xA8AA, offset: 0xA8AA, size: 0x8, addend: 0x0, symName: __Z41__static_initialization_and_destruction_0v, symObjAddr: 0x3818, symBinAddr: 0x100005AD0, symSize: 0x3C }
  - { offsetInCU: 0xA963, offset: 0xA963, size: 0x8, addend: 0x0, symName: __ZSt3minImERKT_S2_S2_, symObjAddr: 0x3710, symBinAddr: 0x1000059C8, symSize: 0x38 }
  - { offsetInCU: 0xA96B, offset: 0xA96B, size: 0x8, addend: 0x0, symName: __ZSt19__relocate_object_aINSt7__cxx1112basic_stringIcSt11char_traitsIcESaIcEEES5_SaIS5_EEvPT_PT0_RT1_, symObjAddr: 0x3748, symBinAddr: 0x100005A00, symSize: 0xD0 }
  - { offsetInCU: 0xAAA8, offset: 0xAAA8, size: 0x8, addend: 0x0, symName: __ZSt14__relocate_a_1IPNSt7__cxx1112basic_stringIcSt11char_traitsIcESaIcEEES6_SaIS5_EET0_T_S9_S8_RT1_, symObjAddr: 0x368C, symBinAddr: 0x100005944, symSize: 0x84 }
  - { offsetInCU: 0xAAB0, offset: 0xAAB0, size: 0x8, addend: 0x0, symName: __ZSt3minImERKT_S2_S2_, symObjAddr: 0x3710, symBinAddr: 0x1000059C8, symSize: 0x38 }
  - { offsetInCU: 0xAAEF, offset: 0xAAEF, size: 0x8, addend: 0x0, symName: __ZSt12__niter_baseIPNSt7__cxx1112basic_stringIcSt11char_traitsIcESaIcEEEET_S7_, symObjAddr: 0x3678, symBinAddr: 0x100005930, symSize: 0x14 }
  - { offsetInCU: 0xAAF7, offset: 0xAAF7, size: 0x8, addend: 0x0, symName: __ZSt14__relocate_a_1IPNSt7__cxx1112basic_stringIcSt11char_traitsIcESaIcEEES6_SaIS5_EET0_T_S9_S8_RT1_, symObjAddr: 0x368C, symBinAddr: 0x100005944, symSize: 0x84 }
  - { offsetInCU: 0xAAB7, offset: 0xAAB7, size: 0x8, addend: 0x0, symName: __ZNSt15__new_allocatorINSt7__cxx1112basic_stringIcSt11char_traitsIcESaIcEEEE8allocateEmPKv, symObjAddr: 0x35FC, symBinAddr: 0x1000058B4, symSize: 0x7C }
  - { offsetInCU: 0xAABF, offset: 0xAABF, size: 0x8, addend: 0x0, symName: __ZSt12__niter_baseIPNSt7__cxx1112basic_stringIcSt11char_traitsIcESaIcEEEET_S7_, symObjAddr: 0x3678, symBinAddr: 0x100005930, symSize: 0x14 }
  - { offsetInCU: 0xAB3D, offset: 0xAB3D, size: 0x8, addend: 0x0, symName: __ZNKSt12_Vector_baseINSt7__cxx1112basic_stringIcSt11char_traitsIcESaIcEEESaIS5_EE19_M_get_Tp_allocatorEv, symObjAddr: 0x35E8, symBinAddr: 0x1000058A0, symSize: 0x14 }
  - { offsetInCU: 0xAB45, offset: 0xAB45, size: 0x8, addend: 0x0, symName: __ZNSt15__new_allocatorINSt7__cxx1112basic_stringIcSt11char_traitsIcESaIcEEEE8allocateEmPKv, symObjAddr: 0x35FC, symBinAddr: 0x1000058B4, symSize: 0x7C }
  - { offsetInCU: 0xAB6C, offset: 0xAB6C, size: 0x8, addend: 0x0, symName: __ZNSt6vectorINSt7__cxx1112basic_stringIcSt11char_traitsIcESaIcEEESaIS5_EE11_S_max_sizeERKS6_, symObjAddr: 0x3594, symBinAddr: 0x10000584C, symSize: 0x54 }
  - { offsetInCU: 0xAB74, offset: 0xAB74, size: 0x8, addend: 0x0, symName: __ZNKSt12_Vector_baseINSt7__cxx1112basic_stringIcSt11char_traitsIcESaIcEEESaIS5_EE19_M_get_Tp_allocatorEv, symObjAddr: 0x35E8, symBinAddr: 0x1000058A0, symSize: 0x14 }
  - { offsetInCU: 0xAC38, offset: 0xAC38, size: 0x8, addend: 0x0, symName: __ZNSt10_Head_baseILm1EiLb0EE7_M_headERS0_, symObjAddr: 0x3580, symBinAddr: 0x100005838, symSize: 0x14 }
  - { offsetInCU: 0xAC40, offset: 0xAC40, size: 0x8, addend: 0x0, symName: __ZNSt6vectorINSt7__cxx1112basic_stringIcSt11char_traitsIcESaIcEEESaIS5_EE11_S_max_sizeERKS6_, symObjAddr: 0x3594, symBinAddr: 0x10000584C, symSize: 0x54 }
  - { offsetInCU: 0xAC69, offset: 0xAC69, size: 0x8, addend: 0x0, symName: __ZNSt10_Head_baseILm1ERiLb0EE7_M_headERS1_, symObjAddr: 0x3568, symBinAddr: 0x100005820, symSize: 0x18 }
  - { offsetInCU: 0xAC71, offset: 0xAC71, size: 0x8, addend: 0x0, symName: __ZNSt10_Head_baseILm1EiLb0EE7_M_headERS0_, symObjAddr: 0x3580, symBinAddr: 0x100005838, symSize: 0x14 }
  - { offsetInCU: 0xACE7, offset: 0xACE7, size: 0x8, addend: 0x0, symName: __ZNSt10_Head_baseILm1ERiLb0EEC2ES0_, symObjAddr: 0x3544, symBinAddr: 0x1000057FC, symSize: 0x24 }
  - { offsetInCU: 0xACEF, offset: 0xACEF, size: 0x8, addend: 0x0, symName: __ZNSt10_Head_baseILm1ERiLb0EE7_M_headERS1_, symObjAddr: 0x3568, symBinAddr: 0x100005820, symSize: 0x18 }
  - { offsetInCU: 0xAD71, offset: 0xAD71, size: 0x8, addend: 0x0, symName: __ZSt8_DestroyINSt7__cxx1112basic_stringIcSt11char_traitsIcESaIcEEEEvPT_, symObjAddr: 0x3524, symBinAddr: 0x1000057DC, symSize: 0x20 }
  - { offsetInCU: 0xAD79, offset: 0xAD79, size: 0x8, addend: 0x0, symName: __ZNSt10_Head_baseILm1ERiLb0EEC2ES0_, symObjAddr: 0x3544, symBinAddr: 0x1000057FC, symSize: 0x24 }
  - { offsetInCU: 0xAD9C, offset: 0xAD9C, size: 0x8, addend: 0x0, symName: __ZNSt10_Head_baseILm1EiLb0EEC2IRiEEOT_, symObjAddr: 0x34F4, symBinAddr: 0x1000057AC, symSize: 0x30 }
  - { offsetInCU: 0xADA4, offset: 0xADA4, size: 0x8, addend: 0x0, symName: __ZSt8_DestroyINSt7__cxx1112basic_stringIcSt11char_traitsIcESaIcEEEEvPT_, symObjAddr: 0x3524, symBinAddr: 0x1000057DC, symSize: 0x20 }
  - { offsetInCU: 0xAEE1, offset: 0xAEE1, size: 0x8, addend: 0x0, symName: __ZSt12__relocate_aIPNSt7__cxx1112basic_stringIcSt11char_traitsIcESaIcEEES6_SaIS5_EET0_T_S9_S8_RT1_, symObjAddr: 0x3498, symBinAddr: 0x100005750, symSize: 0x5C }
  - { offsetInCU: 0xAEE9, offset: 0xAEE9, size: 0x8, addend: 0x0, symName: __ZNSt10_Head_baseILm1EiLb0EEC2IRiEEOT_, symObjAddr: 0x34F4, symBinAddr: 0x1000057AC, symSize: 0x30 }
  - { offsetInCU: 0xAEF3, offset: 0xAEF3, size: 0x8, addend: 0x0, symName: __ZSt3maxImERKT_S2_S2_, symObjAddr: 0x3460, symBinAddr: 0x100005718, symSize: 0x38 }
  - { offsetInCU: 0xAEFB, offset: 0xAEFB, size: 0x8, addend: 0x0, symName: __ZSt12__relocate_aIPNSt7__cxx1112basic_stringIcSt11char_traitsIcESaIcEEES6_SaIS5_EET0_T_S9_S8_RT1_, symObjAddr: 0x3498, symBinAddr: 0x100005750, symSize: 0x5C }
  - { offsetInCU: 0xAF21, offset: 0xAF21, size: 0x8, addend: 0x0, symName: __ZNKSt6vectorINSt7__cxx1112basic_stringIcSt11char_traitsIcESaIcEEESaIS5_EE8max_sizeEv, symObjAddr: 0x3440, symBinAddr: 0x1000056F8, symSize: 0x20 }
  - { offsetInCU: 0xAF29, offset: 0xAF29, size: 0x8, addend: 0x0, symName: __ZSt3maxImERKT_S2_S2_, symObjAddr: 0x3460, symBinAddr: 0x100005718, symSize: 0x38 }
  - { offsetInCU: 0xAF95, offset: 0xAF95, size: 0x8, addend: 0x0, symName: __ZSt7forwardIiEOT_RNSt16remove_referenceIS0_E4typeE, symObjAddr: 0x342C, symBinAddr: 0x1000056E4, symSize: 0x14 }
  - { offsetInCU: 0xAF9D, offset: 0xAF9D, size: 0x8, addend: 0x0, symName: __ZNKSt6vectorINSt7__cxx1112basic_stringIcSt11char_traitsIcESaIcEEESaIS5_EE8max_sizeEv, symObjAddr: 0x3440, symBinAddr: 0x1000056F8, symSize: 0x20 }
  - { offsetInCU: 0xAFAE, offset: 0xAFAE, size: 0x8, addend: 0x0, symName: __ZNSt11_Tuple_implILm1EJiEE7_M_headERS0_, symObjAddr: 0x3410, symBinAddr: 0x1000056C8, symSize: 0x1C }
  - { offsetInCU: 0xAFB6, offset: 0xAFB6, size: 0x8, addend: 0x0, symName: __ZSt7forwardIiEOT_RNSt16remove_referenceIS0_E4typeE, symObjAddr: 0x342C, symBinAddr: 0x1000056E4, symSize: 0x14 }
  - { offsetInCU: 0xAFE0, offset: 0xAFE0, size: 0x8, addend: 0x0, symName: __ZNSt11_Tuple_implILm1EJRiEE7_M_headERS1_, symObjAddr: 0x33F4, symBinAddr: 0x1000056AC, symSize: 0x1C }
  - { offsetInCU: 0xAFE8, offset: 0xAFE8, size: 0x8, addend: 0x0, symName: __ZNSt11_Tuple_implILm1EJiEE7_M_headERS0_, symObjAddr: 0x3410, symBinAddr: 0x1000056C8, symSize: 0x1C }
  - { offsetInCU: 0xB094, offset: 0xB094, size: 0x8, addend: 0x0, symName: __ZSt11__addressofINSt7__cxx1112basic_stringIcSt11char_traitsIcESaIcEEEEPT_RS6_, symObjAddr: 0x33E0, symBinAddr: 0x100005698, symSize: 0x14 }
  - { offsetInCU: 0xB09C, offset: 0xB09C, size: 0x8, addend: 0x0, symName: __ZNSt11_Tuple_implILm1EJRiEE7_M_headERS1_, symObjAddr: 0x33F4, symBinAddr: 0x1000056AC, symSize: 0x1C }
  - { offsetInCU: 0xB05C, offset: 0xB05C, size: 0x8, addend: 0x0, symName: __ZNSt10_Head_baseILm0ENSt7__cxx1112basic_stringIcSt11char_traitsIcESaIcEEELb0EE7_M_headERS6_, symObjAddr: 0x33CC, symBinAddr: 0x100005684, symSize: 0x14 }
  - { offsetInCU: 0xB064, offset: 0xB064, size: 0x8, addend: 0x0, symName: __ZSt11__addressofINSt7__cxx1112basic_stringIcSt11char_traitsIcESaIcEEEEPT_RS6_, symObjAddr: 0x33E0, symBinAddr: 0x100005698, symSize: 0x14 }
  - { offsetInCU: 0xB08D, offset: 0xB08D, size: 0x8, addend: 0x0, symName: __ZNSt10_Head_baseILm0ERNSt7__cxx1112basic_stringIcSt11char_traitsIcESaIcEEELb0EE7_M_headERS7_, symObjAddr: 0x33B4, symBinAddr: 0x10000566C, symSize: 0x18 }
  - { offsetInCU: 0xB095, offset: 0xB095, size: 0x8, addend: 0x0, symName: __ZNSt10_Head_baseILm0ENSt7__cxx1112basic_stringIcSt11char_traitsIcESaIcEEELb0EE7_M_headERS6_, symObjAddr: 0x33CC, symBinAddr: 0x100005684, symSize: 0x14 }
  - { offsetInCU: 0xB13E, offset: 0xB13E, size: 0x8, addend: 0x0, symName: __ZNSt10_Head_baseILm0ERNSt7__cxx1112basic_stringIcSt11char_traitsIcESaIcEEELb0EEC2ES6_, symObjAddr: 0x3390, symBinAddr: 0x100005648, symSize: 0x24 }
  - { offsetInCU: 0xB146, offset: 0xB146, size: 0x8, addend: 0x0, symName: __ZNSt10_Head_baseILm0ERNSt7__cxx1112basic_stringIcSt11char_traitsIcESaIcEEELb0EE7_M_headERS7_, symObjAddr: 0x33B4, symBinAddr: 0x10000566C, symSize: 0x18 }
  - { offsetInCU: 0xB16E, offset: 0xB16E, size: 0x8, addend: 0x0, symName: __ZNSt11_Tuple_implILm1EJRiEEC2ES0_, symObjAddr: 0x3368, symBinAddr: 0x100005620, symSize: 0x28 }
  - { offsetInCU: 0xB176, offset: 0xB176, size: 0x8, addend: 0x0, symName: __ZNSt10_Head_baseILm0ERNSt7__cxx1112basic_stringIcSt11char_traitsIcESaIcEEELb0EEC2ES6_, symObjAddr: 0x3390, symBinAddr: 0x100005648, symSize: 0x24 }
  - { offsetInCU: 0xB216, offset: 0xB216, size: 0x8, addend: 0x0, symName: __ZNSt10_Head_baseILm0ENSt7__cxx1112basic_stringIcSt11char_traitsIcESaIcEEELb0EEC2IS5_EEOT_, symObjAddr: 0x332C, symBinAddr: 0x1000055E4, symSize: 0x3C }
  - { offsetInCU: 0xB21E, offset: 0xB21E, size: 0x8, addend: 0x0, symName: __ZNSt11_Tuple_implILm1EJRiEEC2ES0_, symObjAddr: 0x3368, symBinAddr: 0x100005620, symSize: 0x28 }
  - { offsetInCU: 0xB202, offset: 0xB202, size: 0x8, addend: 0x0, symName: __ZNK9__gnu_cxx17__normal_iteratorIPNSt7__cxx1112basic_stringIcSt11char_traitsIcESaIcEEESt6vectorIS6_SaIS6_EEEmiEl, symObjAddr: 0x32E8, symBinAddr: 0x1000055A0, symSize: 0x44 }
  - { offsetInCU: 0xB20A, offset: 0xB20A, size: 0x8, addend: 0x0, symName: __ZNSt10_Head_baseILm0ENSt7__cxx1112basic_stringIcSt11char_traitsIcESaIcEEELb0EEC2IS5_EEOT_, symObjAddr: 0x332C, symBinAddr: 0x1000055E4, symSize: 0x3C }
  - { offsetInCU: 0xB298, offset: 0xB298, size: 0x8, addend: 0x0, symName: __ZNSt12_Destroy_auxILb0EE9__destroyIPNSt7__cxx1112basic_stringIcSt11char_traitsIcESaIcEEEEEvT_S9_, symObjAddr: 0x329C, symBinAddr: 0x100005554, symSize: 0x4C }
  - { offsetInCU: 0xB2A0, offset: 0xB2A0, size: 0x8, addend: 0x0, symName: __ZNK9__gnu_cxx17__normal_iteratorIPNSt7__cxx1112basic_stringIcSt11char_traitsIcESaIcEEESt6vectorIS6_SaIS6_EEEmiEl, symObjAddr: 0x32E8, symBinAddr: 0x1000055A0, symSize: 0x44 }
  - { offsetInCU: 0xB2E9, offset: 0xB2E9, size: 0x8, addend: 0x0, symName: __ZNSt15__new_allocatorINSt7__cxx1112basic_stringIcSt11char_traitsIcESaIcEEEE10deallocateEPS5_m, symObjAddr: 0x326C, symBinAddr: 0x100005524, symSize: 0x30 }
  - { offsetInCU: 0xB2F1, offset: 0xB2F1, size: 0x8, addend: 0x0, symName: __ZNSt12_Destroy_auxILb0EE9__destroyIPNSt7__cxx1112basic_stringIcSt11char_traitsIcESaIcEEEEEvT_S9_, symObjAddr: 0x329C, symBinAddr: 0x100005554, symSize: 0x4C }
  - { offsetInCU: 0xB3D0, offset: 0xB3D0, size: 0x8, addend: 0x0, symName: __ZNSt10_Head_baseILm0ENSt7__cxx1112basic_stringIcSt11char_traitsIcESaIcEEELb0EEC2IRS5_EEOT_, symObjAddr: 0x3230, symBinAddr: 0x1000054E8, symSize: 0x3C }
  - { offsetInCU: 0xB3D8, offset: 0xB3D8, size: 0x8, addend: 0x0, symName: __ZNSt15__new_allocatorINSt7__cxx1112basic_stringIcSt11char_traitsIcESaIcEEEE10deallocateEPS5_m, symObjAddr: 0x326C, symBinAddr: 0x100005524, symSize: 0x30 }
  - { offsetInCU: 0xB418, offset: 0xB418, size: 0x8, addend: 0x0, symName: __ZNSt11_Tuple_implILm1EJiEEC2IRiEEOT_, symObjAddr: 0x31F4, symBinAddr: 0x1000054AC, symSize: 0x3C }
  - { offsetInCU: 0xB420, offset: 0xB420, size: 0x8, addend: 0x0, symName: __ZNSt10_Head_baseILm0ENSt7__cxx1112basic_stringIcSt11char_traitsIcESaIcEEELb0EEC2IRS5_EEOT_, symObjAddr: 0x3230, symBinAddr: 0x1000054E8, symSize: 0x3C }
  - { offsetInCU: 0xB50F, offset: 0xB50F, size: 0x8, addend: 0x0, symName: __ZNSt6vectorINSt7__cxx1112basic_stringIcSt11char_traitsIcESaIcEEESaIS5_EE11_S_relocateEPS5_S8_S8_RS6_, symObjAddr: 0x31C0, symBinAddr: 0x100005478, symSize: 0x34 }
  - { offsetInCU: 0xB517, offset: 0xB517, size: 0x8, addend: 0x0, symName: __ZNSt11_Tuple_implILm1EJiEEC2IRiEEOT_, symObjAddr: 0x31F4, symBinAddr: 0x1000054AC, symSize: 0x3C }
  - { offsetInCU: 0xB57D, offset: 0xB57D, size: 0x8, addend: 0x0, symName: __ZNSt12_Vector_baseINSt7__cxx1112basic_stringIcSt11char_traitsIcESaIcEEESaIS5_EE11_M_allocateEm, symObjAddr: 0x3170, symBinAddr: 0x100005428, symSize: 0x50 }
  - { offsetInCU: 0xB585, offset: 0xB585, size: 0x8, addend: 0x0, symName: __ZNSt6vectorINSt7__cxx1112basic_stringIcSt11char_traitsIcESaIcEEESaIS5_EE11_S_relocateEPS5_S8_S8_RS6_, symObjAddr: 0x31C0, symBinAddr: 0x100005478, symSize: 0x34 }
  - { offsetInCU: 0xB6E9, offset: 0xB6E9, size: 0x8, addend: 0x0, symName: __ZN9__gnu_cxxmiIPNSt7__cxx1112basic_stringIcSt11char_traitsIcESaIcEEESt6vectorIS6_SaIS6_EEEENS_17__normal_iteratorIT_T0_E15difference_typeERKSE_SH_, symObjAddr: 0x3130, symBinAddr: 0x1000053E8, symSize: 0x40 }
  - { offsetInCU: 0xB6F1, offset: 0xB6F1, size: 0x8, addend: 0x0, symName: __ZNSt12_Vector_baseINSt7__cxx1112basic_stringIcSt11char_traitsIcESaIcEEESaIS5_EE11_M_allocateEm, symObjAddr: 0x3170, symBinAddr: 0x100005428, symSize: 0x50 }
  - { offsetInCU: 0xB669, offset: 0xB669, size: 0x8, addend: 0x0, symName: __ZNKSt6vectorINSt7__cxx1112basic_stringIcSt11char_traitsIcESaIcEEESaIS5_EE12_M_check_lenEmPKc, symObjAddr: 0x3060, symBinAddr: 0x100005318, symSize: 0xD0 }
  - { offsetInCU: 0xB671, offset: 0xB671, size: 0x8, addend: 0x0, symName: __ZN9__gnu_cxxmiIPNSt7__cxx1112basic_stringIcSt11char_traitsIcESaIcEEESt6vectorIS6_SaIS6_EEEENS_17__normal_iteratorIT_T0_E15difference_typeERKSE_SH_, symObjAddr: 0x3130, symBinAddr: 0x1000053E8, symSize: 0x40 }
  - { offsetInCU: 0xB7C5, offset: 0xB7C5, size: 0x8, addend: 0x0, symName: __ZSt7forwardIRKNSt7__cxx1112basic_stringIcSt11char_traitsIcESaIcEEEEOT_RNSt16remove_referenceIS8_E4typeE, symObjAddr: 0x304C, symBinAddr: 0x100005304, symSize: 0x14 }
  - { offsetInCU: 0xB7CD, offset: 0xB7CD, size: 0x8, addend: 0x0, symName: __ZNKSt6vectorINSt7__cxx1112basic_stringIcSt11char_traitsIcESaIcEEESaIS5_EE12_M_check_lenEmPKc, symObjAddr: 0x3060, symBinAddr: 0x100005318, symSize: 0xD0 }
  - { offsetInCU: 0xB77B, offset: 0xB77B, size: 0x8, addend: 0x0, symName: __ZNSt11_Tuple_implILm1EJRiEE9_M_assignIiEEvOS_ILm1EJT_EE, symObjAddr: 0x300C, symBinAddr: 0x1000052C4, symSize: 0x40 }
  - { offsetInCU: 0xB783, offset: 0xB783, size: 0x8, addend: 0x0, symName: __ZSt7forwardIRKNSt7__cxx1112basic_stringIcSt11char_traitsIcESaIcEEEEOT_RNSt16remove_referenceIS8_E4typeE, symObjAddr: 0x304C, symBinAddr: 0x100005304, symSize: 0x14 }
  - { offsetInCU: 0xB838, offset: 0xB838, size: 0x8, addend: 0x0, symName: __ZSt4moveIRSt11_Tuple_implILm1EJiEEEONSt16remove_referenceIT_E4typeEOS4_, symObjAddr: 0x2FF8, symBinAddr: 0x1000052B0, symSize: 0x14 }
  - { offsetInCU: 0xB840, offset: 0xB840, size: 0x8, addend: 0x0, symName: __ZNSt11_Tuple_implILm1EJRiEE9_M_assignIiEEvOS_ILm1EJT_EE, symObjAddr: 0x300C, symBinAddr: 0x1000052C4, symSize: 0x40 }
  - { offsetInCU: 0xB81F, offset: 0xB81F, size: 0x8, addend: 0x0, symName: __ZNSt11_Tuple_implILm0EJNSt7__cxx1112basic_stringIcSt11char_traitsIcESaIcEEEiEE7_M_tailERS6_, symObjAddr: 0x2FE4, symBinAddr: 0x10000529C, symSize: 0x14 }
  - { offsetInCU: 0xB827, offset: 0xB827, size: 0x8, addend: 0x0, symName: __ZSt4moveIRSt11_Tuple_implILm1EJiEEEONSt16remove_referenceIT_E4typeEOS4_, symObjAddr: 0x2FF8, symBinAddr: 0x1000052B0, symSize: 0x14 }
  - { offsetInCU: 0xB851, offset: 0xB851, size: 0x8, addend: 0x0, symName: __ZNSt11_Tuple_implILm0EJRNSt7__cxx1112basic_stringIcSt11char_traitsIcESaIcEEERiEE7_M_tailERS8_, symObjAddr: 0x2FD0, symBinAddr: 0x100005288, symSize: 0x14 }
  - { offsetInCU: 0xB859, offset: 0xB859, size: 0x8, addend: 0x0, symName: __ZNSt11_Tuple_implILm0EJNSt7__cxx1112basic_stringIcSt11char_traitsIcESaIcEEEiEE7_M_tailERS6_, symObjAddr: 0x2FE4, symBinAddr: 0x10000529C, symSize: 0x14 }
  - { offsetInCU: 0xB883, offset: 0xB883, size: 0x8, addend: 0x0, symName: __ZNSt11_Tuple_implILm0EJNSt7__cxx1112basic_stringIcSt11char_traitsIcESaIcEEEiEE7_M_headERS6_, symObjAddr: 0x2FB0, symBinAddr: 0x100005268, symSize: 0x20 }
  - { offsetInCU: 0xB88B, offset: 0xB88B, size: 0x8, addend: 0x0, symName: __ZNSt11_Tuple_implILm0EJRNSt7__cxx1112basic_stringIcSt11char_traitsIcESaIcEEERiEE7_M_tailERS8_, symObjAddr: 0x2FD0, symBinAddr: 0x100005288, symSize: 0x14 }
  - { offsetInCU: 0xB8B5, offset: 0xB8B5, size: 0x8, addend: 0x0, symName: __ZNSt11_Tuple_implILm0EJRNSt7__cxx1112basic_stringIcSt11char_traitsIcESaIcEEERiEE7_M_headERS8_, symObjAddr: 0x2F90, symBinAddr: 0x100005248, symSize: 0x20 }
  - { offsetInCU: 0xB8BD, offset: 0xB8BD, size: 0x8, addend: 0x0, symName: __ZNSt11_Tuple_implILm0EJNSt7__cxx1112basic_stringIcSt11char_traitsIcESaIcEEEiEE7_M_headERS6_, symObjAddr: 0x2FB0, symBinAddr: 0x100005268, symSize: 0x20 }
  - { offsetInCU: 0xB999, offset: 0xB999, size: 0x8, addend: 0x0, symName: __ZNSt11_Tuple_implILm0EJRNSt7__cxx1112basic_stringIcSt11char_traitsIcESaIcEEERiEEC2ES6_S7_, symObjAddr: 0x2F54, symBinAddr: 0x10000520C, symSize: 0x3C }
  - { offsetInCU: 0xB9A1, offset: 0xB9A1, size: 0x8, addend: 0x0, symName: __ZNSt11_Tuple_implILm0EJRNSt7__cxx1112basic_stringIcSt11char_traitsIcESaIcEEERiEE7_M_headERS8_, symObjAddr: 0x2F90, symBinAddr: 0x100005248, symSize: 0x20 }
  - { offsetInCU: 0xBA3F, offset: 0xBA3F, size: 0x8, addend: 0x0, symName: __ZNSt11_Tuple_implILm0EJNSt7__cxx1112basic_stringIcSt11char_traitsIcESaIcEEEiEEC2IS5_JRiEvEEOT_DpOT0_, symObjAddr: 0x2EF8, symBinAddr: 0x1000051B0, symSize: 0x5C }
  - { offsetInCU: 0xBA47, offset: 0xBA47, size: 0x8, addend: 0x0, symName: __ZNSt11_Tuple_implILm0EJRNSt7__cxx1112basic_stringIcSt11char_traitsIcESaIcEEERiEEC2ES6_S7_, symObjAddr: 0x2F54, symBinAddr: 0x10000520C, symSize: 0x3C }
  - { offsetInCU: 0xBA41, offset: 0xBA41, size: 0x8, addend: 0x0, symName: __ZNSt6vectorINSt7__cxx1112basic_stringIcSt11char_traitsIcESaIcEEESaIS5_EE4backEv, symObjAddr: 0x2EC0, symBinAddr: 0x100005178, symSize: 0x38 }
  - { offsetInCU: 0xBA49, offset: 0xBA49, size: 0x8, addend: 0x0, symName: __ZNSt11_Tuple_implILm0EJNSt7__cxx1112basic_stringIcSt11char_traitsIcESaIcEEEiEEC2IS5_JRiEvEEOT_DpOT0_, symObjAddr: 0x2EF8, symBinAddr: 0x1000051B0, symSize: 0x5C }
  - { offsetInCU: 0xBA70, offset: 0xBA70, size: 0x8, addend: 0x0, symName: __ZNSt6vectorINSt7__cxx1112basic_stringIcSt11char_traitsIcESaIcEEESaIS5_EE17_M_realloc_insertIJS5_EEEvN9__gnu_cxx17__normal_iteratorIPS5_S7_EEDpOT_, symObjAddr: 0x2CFC, symBinAddr: 0x100004FB4, symSize: 0x1C4 }
  - { offsetInCU: 0xBA78, offset: 0xBA78, size: 0x8, addend: 0x0, symName: __ZNSt6vectorINSt7__cxx1112basic_stringIcSt11char_traitsIcESaIcEEESaIS5_EE4backEv, symObjAddr: 0x2EC0, symBinAddr: 0x100005178, symSize: 0x38 }
  - { offsetInCU: 0xBC9E, offset: 0xBC9E, size: 0x8, addend: 0x0, symName: __ZSt8_DestroyIPNSt7__cxx1112basic_stringIcSt11char_traitsIcESaIcEEEEvT_S7_, symObjAddr: 0x2CD4, symBinAddr: 0x100004F8C, symSize: 0x28 }
  - { offsetInCU: 0xBCA6, offset: 0xBCA6, size: 0x8, addend: 0x0, symName: __ZNSt6vectorINSt7__cxx1112basic_stringIcSt11char_traitsIcESaIcEEESaIS5_EE17_M_realloc_insertIJS5_EEEvN9__gnu_cxx17__normal_iteratorIPS5_S7_EEDpOT_, symObjAddr: 0x2CFC, symBinAddr: 0x100004FB4, symSize: 0x1C4 }
  - { offsetInCU: 0xBD8F, offset: 0xBD8F, size: 0x8, addend: 0x0, symName: __ZNSt11_Tuple_implILm0EJNSt7__cxx1112basic_stringIcSt11char_traitsIcESaIcEEEiEEC2IRS5_JRiEvEEOT_DpOT0_, symObjAddr: 0x2C78, symBinAddr: 0x100004F30, symSize: 0x5C }
  - { offsetInCU: 0xBD97, offset: 0xBD97, size: 0x8, addend: 0x0, symName: __ZSt8_DestroyIPNSt7__cxx1112basic_stringIcSt11char_traitsIcESaIcEEEEvT_S7_, symObjAddr: 0x2CD4, symBinAddr: 0x100004F8C, symSize: 0x28 }
  - { offsetInCU: 0xBDFD, offset: 0xBDFD, size: 0x8, addend: 0x0, symName: __ZNK9__gnu_cxx17__normal_iteratorIPNSt7__cxx1112basic_stringIcSt11char_traitsIcESaIcEEESt6vectorIS6_SaIS6_EEE4baseEv, symObjAddr: 0x2C64, symBinAddr: 0x100004F1C, symSize: 0x14 }
  - { offsetInCU: 0xBE05, offset: 0xBE05, size: 0x8, addend: 0x0, symName: __ZNSt11_Tuple_implILm0EJNSt7__cxx1112basic_stringIcSt11char_traitsIcESaIcEEEiEEC2IRS5_JRiEvEEOT_DpOT0_, symObjAddr: 0x2C78, symBinAddr: 0x100004F30, symSize: 0x5C }
  - { offsetInCU: 0xBECB, offset: 0xBECB, size: 0x8, addend: 0x0, symName: __ZN9__gnu_cxx17__normal_iteratorIPNSt7__cxx1112basic_stringIcSt11char_traitsIcESaIcEEESt6vectorIS6_SaIS6_EEEC1ERKS7_, symObjAddr: 0x2C3C, symBinAddr: 0x100004EF4, symSize: 0x28 }
  - { offsetInCU: 0xBED3, offset: 0xBED3, size: 0x8, addend: 0x0, symName: __ZNK9__gnu_cxx17__normal_iteratorIPNSt7__cxx1112basic_stringIcSt11char_traitsIcESaIcEEESt6vectorIS6_SaIS6_EEE4baseEv, symObjAddr: 0x2C64, symBinAddr: 0x100004F1C, symSize: 0x14 }
  - { offsetInCU: 0xBE90, offset: 0xBE90, size: 0x8, addend: 0x0, symName: __ZNSt6vectorINSt7__cxx1112basic_stringIcSt11char_traitsIcESaIcEEESaIS5_EE17_M_realloc_insertIJRKS5_EEEvN9__gnu_cxx17__normal_iteratorIPS5_S7_EEDpOT_, symObjAddr: 0x29AC, symBinAddr: 0x100004C64, symSize: 0x290 }
  - { offsetInCU: 0xBE98, offset: 0xBE98, size: 0x8, addend: 0x0, symName: __ZN9__gnu_cxx17__normal_iteratorIPNSt7__cxx1112basic_stringIcSt11char_traitsIcESaIcEEESt6vectorIS6_SaIS6_EEEC1ERKS7_, symObjAddr: 0x2C3C, symBinAddr: 0x100004EF4, symSize: 0x28 }
  - { offsetInCU: 0xC0F0, offset: 0xC0F0, size: 0x8, addend: 0x0, symName: __ZNSt11_Tuple_implILm0EJRNSt7__cxx1112basic_stringIcSt11char_traitsIcESaIcEEERiEE9_M_assignIS5_JiEEEvOS_ILm0EJT_DpT0_EE, symObjAddr: 0x2944, symBinAddr: 0x100004BFC, symSize: 0x68 }
  - { offsetInCU: 0xC0F8, offset: 0xC0F8, size: 0x8, addend: 0x0, symName: __ZNSt6vectorINSt7__cxx1112basic_stringIcSt11char_traitsIcESaIcEEESaIS5_EE17_M_realloc_insertIJRKS5_EEEvN9__gnu_cxx17__normal_iteratorIPS5_S7_EEDpOT_, symObjAddr: 0x29AC, symBinAddr: 0x100004C64, symSize: 0x290 }
  - { offsetInCU: 0xC22D, offset: 0xC22D, size: 0x8, addend: 0x0, symName: __ZSt4moveIRSt5tupleIJNSt7__cxx1112basic_stringIcSt11char_traitsIcESaIcEEEiEEEONSt16remove_referenceIT_E4typeEOSA_, symObjAddr: 0x2930, symBinAddr: 0x100004BE8, symSize: 0x14 }
  - { offsetInCU: 0xC235, offset: 0xC235, size: 0x8, addend: 0x0, symName: __ZNSt11_Tuple_implILm0EJRNSt7__cxx1112basic_stringIcSt11char_traitsIcESaIcEEERiEE9_M_assignIS5_JiEEEvOS_ILm0EJT_DpT0_EE, symObjAddr: 0x2944, symBinAddr: 0x100004BFC, symSize: 0x68 }
  - { offsetInCU: 0xC262, offset: 0xC262, size: 0x8, addend: 0x0, symName: __ZNSt5tupleIJRNSt7__cxx1112basic_stringIcSt11char_traitsIcESaIcEEERiEEC1ILb1ELb1EEES6_S7_, symObjAddr: 0x2900, symBinAddr: 0x100004BB8, symSize: 0x30 }
  - { offsetInCU: 0xC26A, offset: 0xC26A, size: 0x8, addend: 0x0, symName: __ZSt4moveIRSt5tupleIJNSt7__cxx1112basic_stringIcSt11char_traitsIcESaIcEEEiEEEONSt16remove_referenceIT_E4typeEOSA_, symObjAddr: 0x2930, symBinAddr: 0x100004BE8, symSize: 0x14 }
  - { offsetInCU: 0xC325, offset: 0xC325, size: 0x8, addend: 0x0, symName: __ZNSt5tupleIJNSt7__cxx1112basic_stringIcSt11char_traitsIcESaIcEEEiEEC1IS5_RiLb1EEEOT_OT0_, symObjAddr: 0x28B0, symBinAddr: 0x100004B68, symSize: 0x50 }
  - { offsetInCU: 0xC32D, offset: 0xC32D, size: 0x8, addend: 0x0, symName: __ZNSt5tupleIJRNSt7__cxx1112basic_stringIcSt11char_traitsIcESaIcEEERiEEC1ILb1ELb1EEES6_S7_, symObjAddr: 0x2900, symBinAddr: 0x100004BB8, symSize: 0x30 }
  - { offsetInCU: 0xC3C1, offset: 0xC3C1, size: 0x8, addend: 0x0, symName: __ZSt7forwardINSt7__cxx1112basic_stringIcSt11char_traitsIcESaIcEEEEOT_RNSt16remove_referenceIS6_E4typeE, symObjAddr: 0x289C, symBinAddr: 0x100004B54, symSize: 0x14 }
  - { offsetInCU: 0xC3C9, offset: 0xC3C9, size: 0x8, addend: 0x0, symName: __ZNSt5tupleIJNSt7__cxx1112basic_stringIcSt11char_traitsIcESaIcEEEiEEC1IS5_RiLb1EEEOT_OT0_, symObjAddr: 0x28B0, symBinAddr: 0x100004B68, symSize: 0x50 }
  - { offsetInCU: 0xC37F, offset: 0xC37F, size: 0x8, addend: 0x0, symName: __ZNSt6vectorINSt7__cxx1112basic_stringIcSt11char_traitsIcESaIcEEESaIS5_EE12emplace_backIJS5_EEERS5_DpOT_, symObjAddr: 0x27B0, symBinAddr: 0x100004A68, symSize: 0xEC }
  - { offsetInCU: 0xC387, offset: 0xC387, size: 0x8, addend: 0x0, symName: __ZSt7forwardINSt7__cxx1112basic_stringIcSt11char_traitsIcESaIcEEEEOT_RNSt16remove_referenceIS6_E4typeE, symObjAddr: 0x289C, symBinAddr: 0x100004B54, symSize: 0x14 }
  - { offsetInCU: 0xC49F, offset: 0xC49F, size: 0x8, addend: 0x0, symName: __ZNSt12_Vector_baseINSt7__cxx1112basic_stringIcSt11char_traitsIcESaIcEEESaIS5_EE19_M_get_Tp_allocatorEv, symObjAddr: 0x279C, symBinAddr: 0x100004A54, symSize: 0x14 }
  - { offsetInCU: 0xC4A7, offset: 0xC4A7, size: 0x8, addend: 0x0, symName: __ZNSt6vectorINSt7__cxx1112basic_stringIcSt11char_traitsIcESaIcEEESaIS5_EE12emplace_backIJS5_EEERS5_DpOT_, symObjAddr: 0x27B0, symBinAddr: 0x100004A68, symSize: 0xEC }
  - { offsetInCU: 0xC4CE, offset: 0xC4CE, size: 0x8, addend: 0x0, symName: __ZNSt12_Vector_baseINSt7__cxx1112basic_stringIcSt11char_traitsIcESaIcEEESaIS5_EE13_M_deallocateEPS5_m, symObjAddr: 0x2744, symBinAddr: 0x1000049FC, symSize: 0x58 }
  - { offsetInCU: 0xC4D6, offset: 0xC4D6, size: 0x8, addend: 0x0, symName: __ZNSt12_Vector_baseINSt7__cxx1112basic_stringIcSt11char_traitsIcESaIcEEESaIS5_EE19_M_get_Tp_allocatorEv, symObjAddr: 0x279C, symBinAddr: 0x100004A54, symSize: 0x14 }
  - { offsetInCU: 0xC5DB, offset: 0xC5DB, size: 0x8, addend: 0x0, symName: __ZNSt15__new_allocatorINSt7__cxx1112basic_stringIcSt11char_traitsIcESaIcEEEED2Ev, symObjAddr: 0x2730, symBinAddr: 0x1000049E8, symSize: 0x14 }
  - { offsetInCU: 0xC5E3, offset: 0xC5E3, size: 0x8, addend: 0x0, symName: __ZNSt12_Vector_baseINSt7__cxx1112basic_stringIcSt11char_traitsIcESaIcEEESaIS5_EE13_M_deallocateEPS5_m, symObjAddr: 0x2744, symBinAddr: 0x1000049FC, symSize: 0x58 }
  - { offsetInCU: 0xC639, offset: 0xC639, size: 0x8, addend: 0x0, symName: __ZNSt12_Vector_baseINSt7__cxx1112basic_stringIcSt11char_traitsIcESaIcEEESaIS5_EE17_Vector_impl_dataC2Ev, symObjAddr: 0x2704, symBinAddr: 0x1000049BC, symSize: 0x2C }
  - { offsetInCU: 0xC641, offset: 0xC641, size: 0x8, addend: 0x0, symName: __ZNSt15__new_allocatorINSt7__cxx1112basic_stringIcSt11char_traitsIcESaIcEEEED2Ev, symObjAddr: 0x2730, symBinAddr: 0x1000049E8, symSize: 0x14 }
  - { offsetInCU: 0xC6C8, offset: 0xC6C8, size: 0x8, addend: 0x0, symName: __ZNSt5tupleIJNSt7__cxx1112basic_stringIcSt11char_traitsIcESaIcEEEiEEC1IRS5_RiLb1EEEOT_OT0_, symObjAddr: 0x26B4, symBinAddr: 0x10000496C, symSize: 0x50 }
  - { offsetInCU: 0xC6D0, offset: 0xC6D0, size: 0x8, addend: 0x0, symName: __ZNSt12_Vector_baseINSt7__cxx1112basic_stringIcSt11char_traitsIcESaIcEEESaIS5_EE17_Vector_impl_dataC2Ev, symObjAddr: 0x2704, symBinAddr: 0x1000049BC, symSize: 0x2C }
  - { offsetInCU: 0xC714, offset: 0xC714, size: 0x8, addend: 0x0, symName: __ZSt7forwardIRiEOT_RNSt16remove_referenceIS1_E4typeE, symObjAddr: 0x26A0, symBinAddr: 0x100004958, symSize: 0x14 }
  - { offsetInCU: 0xC71C, offset: 0xC71C, size: 0x8, addend: 0x0, symName: __ZNSt5tupleIJNSt7__cxx1112basic_stringIcSt11char_traitsIcESaIcEEEiEEC1IRS5_RiLb1EEEOT_OT0_, symObjAddr: 0x26B4, symBinAddr: 0x10000496C, symSize: 0x50 }
  - { offsetInCU: 0xC7B8, offset: 0xC7B8, size: 0x8, addend: 0x0, symName: __ZSt7forwardIRNSt7__cxx1112basic_stringIcSt11char_traitsIcESaIcEEEEOT_RNSt16remove_referenceIS7_E4typeE, symObjAddr: 0x268C, symBinAddr: 0x100004944, symSize: 0x14 }
  - { offsetInCU: 0xC7C0, offset: 0xC7C0, size: 0x8, addend: 0x0, symName: __ZSt7forwardIRiEOT_RNSt16remove_referenceIS1_E4typeE, symObjAddr: 0x26A0, symBinAddr: 0x100004958, symSize: 0x14 }
  - { offsetInCU: 0xC775, offset: 0xC775, size: 0x8, addend: 0x0, symName: __ZNK9__gnu_cxx17__normal_iteratorIPcNSt7__cxx1112basic_stringIcSt11char_traitsIcESaIcEEEE4baseEv, symObjAddr: 0x2678, symBinAddr: 0x100004930, symSize: 0x14 }
  - { offsetInCU: 0xC77D, offset: 0xC77D, size: 0x8, addend: 0x0, symName: __ZSt7forwardIRNSt7__cxx1112basic_stringIcSt11char_traitsIcESaIcEEEEOT_RNSt16remove_referenceIS7_E4typeE, symObjAddr: 0x268C, symBinAddr: 0x100004944, symSize: 0x14 }
  - { offsetInCU: 0xC835, offset: 0xC835, size: 0x8, addend: 0x0, symName: __ZSt4moveIRNSt7__cxx1112basic_stringIcSt11char_traitsIcESaIcEEEEONSt16remove_referenceIT_E4typeEOS8_, symObjAddr: 0x2664, symBinAddr: 0x10000491C, symSize: 0x14 }
  - { offsetInCU: 0xC83D, offset: 0xC83D, size: 0x8, addend: 0x0, symName: __ZNK9__gnu_cxx17__normal_iteratorIPcNSt7__cxx1112basic_stringIcSt11char_traitsIcESaIcEEEE4baseEv, symObjAddr: 0x2678, symBinAddr: 0x100004930, symSize: 0x14 }
  - { offsetInCU: 0xC8B7, offset: 0xC8B7, size: 0x8, addend: 0x0, symName: __ZSt12__str_concatINSt7__cxx1112basic_stringIcSt11char_traitsIcESaIcEEEET_PKNS6_10value_typeENS6_9size_typeES9_SA_RKNS6_14allocator_typeE, symObjAddr: 0x2584, symBinAddr: 0x10000483C, symSize: 0xE0 }
  - { offsetInCU: 0xC8BF, offset: 0xC8BF, size: 0x8, addend: 0x0, symName: __ZSt4moveIRNSt7__cxx1112basic_stringIcSt11char_traitsIcESaIcEEEEONSt16remove_referenceIT_E4typeEOS8_, symObjAddr: 0x2664, symBinAddr: 0x10000491C, symSize: 0x14 }
  - { offsetInCU: 0xC98A, offset: 0xC98A, size: 0x8, addend: 0x0, symName: __ZNSt7__cxx1112basic_stringIcSt11char_traitsIcESaIcEE12_M_constructIPKcEEvT_S8_St20forward_iterator_tag, symObjAddr: 0x249C, symBinAddr: 0x100004754, symSize: 0xE8 }
  - { offsetInCU: 0xC992, offset: 0xC992, size: 0x8, addend: 0x0, symName: __ZSt12__str_concatINSt7__cxx1112basic_stringIcSt11char_traitsIcESaIcEEEET_PKNS6_10value_typeENS6_9size_typeES9_SA_RKNS6_14allocator_typeE, symObjAddr: 0x2584, symBinAddr: 0x10000483C, symSize: 0xE0 }
  - { offsetInCU: 0xCB41, offset: 0xCB41, size: 0x8, addend: 0x0, symName: __ZZNSt7__cxx1112basic_stringIcSt11char_traitsIcESaIcEE12_M_constructIPKcEEvT_S8_St20forward_iterator_tagEN6_GuardC1EPS4_, symObjAddr: 0x2444, symBinAddr: 0x1000046FC, symSize: 0x24 }
  - { offsetInCU: 0xCB49, offset: 0xCB49, size: 0x8, addend: 0x0, symName: __ZZNSt7__cxx1112basic_stringIcSt11char_traitsIcESaIcEE12_M_constructIPKcEEvT_S8_St20forward_iterator_tagEN6_GuardD1Ev, symObjAddr: 0x2468, symBinAddr: 0x100004720, symSize: 0x34 }
  - { offsetInCU: 0xCB79, offset: 0xCB79, size: 0x8, addend: 0x0, symName: __ZZNSt7__cxx1112basic_stringIcSt11char_traitsIcESaIcEE12_M_constructIPKcEEvT_S8_St20forward_iterator_tagEN6_GuardD1Ev, symObjAddr: 0x2468, symBinAddr: 0x100004720, symSize: 0x34 }
  - { offsetInCU: 0xCB81, offset: 0xCB81, size: 0x8, addend: 0x0, symName: __ZNSt7__cxx1112basic_stringIcSt11char_traitsIcESaIcEE12_M_constructIPKcEEvT_S8_St20forward_iterator_tag, symObjAddr: 0x249C, symBinAddr: 0x100004754, symSize: 0xE8 }
  - { offsetInCU: 0xCC43, offset: 0xCC43, size: 0x8, addend: 0x0, symName: __ZNSt15__new_allocatorIcED2Ev, symObjAddr: 0x2430, symBinAddr: 0x1000046E8, symSize: 0x14 }
  - { offsetInCU: 0xCC4B, offset: 0xCC4B, size: 0x8, addend: 0x0, symName: __ZZNSt7__cxx1112basic_stringIcSt11char_traitsIcESaIcEE12_M_constructIPKcEEvT_S8_St20forward_iterator_tagEN6_GuardC1EPS4_, symObjAddr: 0x2444, symBinAddr: 0x1000046FC, symSize: 0x24 }
  - { offsetInCU: 0xCC6C, offset: 0xCC6C, size: 0x8, addend: 0x0, symName: __ZN9__gnu_cxx11char_traitsIcE2eqERKcS3_, symObjAddr: 0x2400, symBinAddr: 0x1000046B8, symSize: 0x30 }
  - { offsetInCU: 0xCC74, offset: 0xCC74, size: 0x8, addend: 0x0, symName: __ZNSt15__new_allocatorIcED2Ev, symObjAddr: 0x2430, symBinAddr: 0x1000046E8, symSize: 0x14 }
  - { offsetInCU: 0xCD41, offset: 0xCD41, size: 0x8, addend: 0x0, symName: __ZStplIcSt11char_traitsIcESaIcEENSt7__cxx1112basic_stringIT_T0_T1_EERKS8_SA_, symObjAddr: 0x2340, symBinAddr: 0x1000045F8, symSize: 0xC0 }
  - { offsetInCU: 0xCD49, offset: 0xCD49, size: 0x8, addend: 0x0, symName: __ZN9__gnu_cxx11char_traitsIcE2eqERKcS3_, symObjAddr: 0x2400, symBinAddr: 0x1000046B8, symSize: 0x30 }
  - { offsetInCU: 0xCD70, offset: 0xCD70, size: 0x8, addend: 0x0, symName: __ZNK9__gnu_cxx17__normal_iteratorIPNSt7__cxx1112basic_stringIcSt11char_traitsIcESaIcEEESt6vectorIS6_SaIS6_EEEdeEv, symObjAddr: 0x2328, symBinAddr: 0x1000045E0, symSize: 0x18 }
  - { offsetInCU: 0xCD78, offset: 0xCD78, size: 0x8, addend: 0x0, symName: __ZStplIcSt11char_traitsIcESaIcEENSt7__cxx1112basic_stringIT_T0_T1_EERKS8_SA_, symObjAddr: 0x2340, symBinAddr: 0x1000045F8, symSize: 0xC0 }
  - { offsetInCU: 0xCD9F, offset: 0xCD9F, size: 0x8, addend: 0x0, symName: __ZN9__gnu_cxx17__normal_iteratorIPNSt7__cxx1112basic_stringIcSt11char_traitsIcESaIcEEESt6vectorIS6_SaIS6_EEEppEv, symObjAddr: 0x2300, symBinAddr: 0x1000045B8, symSize: 0x28 }
  - { offsetInCU: 0xCDA7, offset: 0xCDA7, size: 0x8, addend: 0x0, symName: __ZNK9__gnu_cxx17__normal_iteratorIPNSt7__cxx1112basic_stringIcSt11char_traitsIcESaIcEEESt6vectorIS6_SaIS6_EEEdeEv, symObjAddr: 0x2328, symBinAddr: 0x1000045E0, symSize: 0x18 }
  - { offsetInCU: 0xCEB3, offset: 0xCEB3, size: 0x8, addend: 0x0, symName: __ZN9__gnu_cxxneIPNSt7__cxx1112basic_stringIcSt11char_traitsIcESaIcEEESt6vectorIS6_SaIS6_EEEEbRKNS_17__normal_iteratorIT_T0_EESG_, symObjAddr: 0x22BC, symBinAddr: 0x100004574, symSize: 0x44 }
  - { offsetInCU: 0xCEBB, offset: 0xCEBB, size: 0x8, addend: 0x0, symName: __ZN9__gnu_cxx17__normal_iteratorIPNSt7__cxx1112basic_stringIcSt11char_traitsIcESaIcEEESt6vectorIS6_SaIS6_EEEppEv, symObjAddr: 0x2300, symBinAddr: 0x1000045B8, symSize: 0x28 }
  - { offsetInCU: 0xCE3B, offset: 0xCE3B, size: 0x8, addend: 0x0, symName: __ZNSt6vectorINSt7__cxx1112basic_stringIcSt11char_traitsIcESaIcEEESaIS5_EE3endEv, symObjAddr: 0x2294, symBinAddr: 0x10000454C, symSize: 0x28 }
  - { offsetInCU: 0xCE43, offset: 0xCE43, size: 0x8, addend: 0x0, symName: __ZN9__gnu_cxxneIPNSt7__cxx1112basic_stringIcSt11char_traitsIcESaIcEEESt6vectorIS6_SaIS6_EEEEbRKNS_17__normal_iteratorIT_T0_EESG_, symObjAddr: 0x22BC, symBinAddr: 0x100004574, symSize: 0x44 }
  - { offsetInCU: 0xCE6A, offset: 0xCE6A, size: 0x8, addend: 0x0, symName: __ZNSt6vectorINSt7__cxx1112basic_stringIcSt11char_traitsIcESaIcEEESaIS5_EE5beginEv, symObjAddr: 0x2270, symBinAddr: 0x100004528, symSize: 0x24 }
  - { offsetInCU: 0xCE72, offset: 0xCE72, size: 0x8, addend: 0x0, symName: __ZNSt6vectorINSt7__cxx1112basic_stringIcSt11char_traitsIcESaIcEEESaIS5_EE3endEv, symObjAddr: 0x2294, symBinAddr: 0x10000454C, symSize: 0x28 }
  - { offsetInCU: 0xCF52, offset: 0xCF52, size: 0x8, addend: 0x0, symName: __ZNSt6vectorINSt7__cxx1112basic_stringIcSt11char_traitsIcESaIcEEESaIS5_EE9push_backERKS5_, symObjAddr: 0x2168, symBinAddr: 0x100004420, symSize: 0x108 }
  - { offsetInCU: 0xCF5A, offset: 0xCF5A, size: 0x8, addend: 0x0, symName: __ZNSt6vectorINSt7__cxx1112basic_stringIcSt11char_traitsIcESaIcEEESaIS5_EE5beginEv, symObjAddr: 0x2270, symBinAddr: 0x100004528, symSize: 0x24 }
  - { offsetInCU: 0xD02B, offset: 0xD02B, size: 0x8, addend: 0x0, symName: __ZNSt5tupleIJRNSt7__cxx1112basic_stringIcSt11char_traitsIcESaIcEEERiEEaSIS5_iEENSt9enable_ifIXcl12__assignableIT_T0_EEERS8_E4typeEOS_IJSB_SC_EE, symObjAddr: 0x212C, symBinAddr: 0x1000043E4, symSize: 0x3C }
  - { offsetInCU: 0xD033, offset: 0xD033, size: 0x8, addend: 0x0, symName: __ZNSt6vectorINSt7__cxx1112basic_stringIcSt11char_traitsIcESaIcEEESaIS5_EE9push_backERKS5_, symObjAddr: 0x2168, symBinAddr: 0x100004420, symSize: 0x108 }
  - { offsetInCU: 0xD13D, offset: 0xD13D, size: 0x8, addend: 0x0, symName: __ZSt3tieIJNSt7__cxx1112basic_stringIcSt11char_traitsIcESaIcEEEiEESt5tupleIJDpRT_EES9_, symObjAddr: 0x20F4, symBinAddr: 0x1000043AC, symSize: 0x38 }
  - { offsetInCU: 0xD145, offset: 0xD145, size: 0x8, addend: 0x0, symName: __ZNSt5tupleIJRNSt7__cxx1112basic_stringIcSt11char_traitsIcESaIcEEERiEEaSIS5_iEENSt9enable_ifIXcl12__assignableIT_T0_EEERS8_E4typeEOS_IJSB_SC_EE, symObjAddr: 0x212C, symBinAddr: 0x1000043E4, symSize: 0x3C }
  - { offsetInCU: 0xD1EA, offset: 0xD1EA, size: 0x8, addend: 0x0, symName: __ZSt10make_tupleIJNSt7__cxx1112basic_stringIcSt11char_traitsIcESaIcEEERiEESt5tupleIJDpNSt25__strip_reference_wrapperINSt5decayIT_E4typeEE6__typeEEEDpOSA_, symObjAddr: 0x20A8, symBinAddr: 0x100004360, symSize: 0x4C }
  - { offsetInCU: 0xD1F2, offset: 0xD1F2, size: 0x8, addend: 0x0, symName: __ZSt3tieIJNSt7__cxx1112basic_stringIcSt11char_traitsIcESaIcEEEiEESt5tupleIJDpRT_EES9_, symObjAddr: 0x20F4, symBinAddr: 0x1000043AC, symSize: 0x38 }
  - { offsetInCU: 0xD14A, offset: 0xD14A, size: 0x8, addend: 0x0, symName: __ZNSt6vectorINSt7__cxx1112basic_stringIcSt11char_traitsIcESaIcEEESaIS5_EEixEm, symObjAddr: 0x2080, symBinAddr: 0x100004338, symSize: 0x28 }
  - { offsetInCU: 0xD152, offset: 0xD152, size: 0x8, addend: 0x0, symName: __ZSt10make_tupleIJNSt7__cxx1112basic_stringIcSt11char_traitsIcESaIcEEERiEESt5tupleIJDpNSt25__strip_reference_wrapperINSt5decayIT_E4typeEE6__typeEEEDpOSA_, symObjAddr: 0x20A8, symBinAddr: 0x100004360, symSize: 0x4C }
  - { offsetInCU: 0xD18D, offset: 0xD18D, size: 0x8, addend: 0x0, symName: __ZNKSt6vectorINSt7__cxx1112basic_stringIcSt11char_traitsIcESaIcEEESaIS5_EE4sizeEv, symObjAddr: 0x2058, symBinAddr: 0x100004310, symSize: 0x28 }
  - { offsetInCU: 0xD195, offset: 0xD195, size: 0x8, addend: 0x0, symName: __ZNSt6vectorINSt7__cxx1112basic_stringIcSt11char_traitsIcESaIcEEESaIS5_EEixEm, symObjAddr: 0x2080, symBinAddr: 0x100004338, symSize: 0x28 }
  - { offsetInCU: 0xD1BC, offset: 0xD1BC, size: 0x8, addend: 0x0, symName: __ZNSt6vectorINSt7__cxx1112basic_stringIcSt11char_traitsIcESaIcEEESaIS5_EE9push_backEOS5_, symObjAddr: 0x2028, symBinAddr: 0x1000042E0, symSize: 0x30 }
  - { offsetInCU: 0xD1C4, offset: 0xD1C4, size: 0x8, addend: 0x0, symName: __ZNKSt6vectorINSt7__cxx1112basic_stringIcSt11char_traitsIcESaIcEEESaIS5_EE4sizeEv, symObjAddr: 0x2058, symBinAddr: 0x100004310, symSize: 0x28 }
  - { offsetInCU: 0xD274, offset: 0xD274, size: 0x8, addend: 0x0, symName: __ZNSt6vectorINSt7__cxx1112basic_stringIcSt11char_traitsIcESaIcEEESaIS5_EED1Ev, symObjAddr: 0x1FCC, symBinAddr: 0x100004284, symSize: 0x5C }
  - { offsetInCU: 0xD27C, offset: 0xD27C, size: 0x8, addend: 0x0, symName: __ZNSt6vectorINSt7__cxx1112basic_stringIcSt11char_traitsIcESaIcEEESaIS5_EE9push_backEOS5_, symObjAddr: 0x2028, symBinAddr: 0x1000042E0, symSize: 0x30 }
  - { offsetInCU: 0xD30E, offset: 0xD30E, size: 0x8, addend: 0x0, symName: __ZNSt12_Vector_baseINSt7__cxx1112basic_stringIcSt11char_traitsIcESaIcEEESaIS5_EED2Ev, symObjAddr: 0x1F7C, symBinAddr: 0x100004234, symSize: 0x50 }
  - { offsetInCU: 0xD316, offset: 0xD316, size: 0x8, addend: 0x0, symName: __ZNSt6vectorINSt7__cxx1112basic_stringIcSt11char_traitsIcESaIcEEESaIS5_EED1Ev, symObjAddr: 0x1FCC, symBinAddr: 0x100004284, symSize: 0x5C }
  - { offsetInCU: 0xD38A, offset: 0xD38A, size: 0x8, addend: 0x0, symName: __ZNSt12_Vector_baseINSt7__cxx1112basic_stringIcSt11char_traitsIcESaIcEEESaIS5_EE12_Vector_implC1Ev, symObjAddr: 0x1F44, symBinAddr: 0x1000041FC, symSize: 0x38 }
  - { offsetInCU: 0xD392, offset: 0xD392, size: 0x8, addend: 0x0, symName: __ZNSt12_Vector_baseINSt7__cxx1112basic_stringIcSt11char_traitsIcESaIcEEESaIS5_EED2Ev, symObjAddr: 0x1F7C, symBinAddr: 0x100004234, symSize: 0x50 }
  - { offsetInCU: 0xD4A4, offset: 0xD4A4, size: 0x8, addend: 0x0, symName: __ZSt10make_tupleIJRNSt7__cxx1112basic_stringIcSt11char_traitsIcESaIcEEERiEESt5tupleIJDpNSt25__strip_reference_wrapperINSt5decayIT_E4typeEE6__typeEEEDpOSB_, symObjAddr: 0x1EF8, symBinAddr: 0x1000041B0, symSize: 0x4C }
  - { offsetInCU: 0xD4AC, offset: 0xD4AC, size: 0x8, addend: 0x0, symName: __ZNSt12_Vector_baseINSt7__cxx1112basic_stringIcSt11char_traitsIcESaIcEEESaIS5_EE12_Vector_implC1Ev, symObjAddr: 0x1F44, symBinAddr: 0x1000041FC, symSize: 0x38 }
  - { offsetInCU: 0xD402, offset: 0xD402, size: 0x8, addend: 0x0, symName: __ZNK9__gnu_cxx17__normal_iteratorIPcNSt7__cxx1112basic_stringIcSt11char_traitsIcESaIcEEEEdeEv, symObjAddr: 0x1EE0, symBinAddr: 0x100004198, symSize: 0x18 }
  - { offsetInCU: 0xD40A, offset: 0xD40A, size: 0x8, addend: 0x0, symName: __ZSt10make_tupleIJRNSt7__cxx1112basic_stringIcSt11char_traitsIcESaIcEEERiEESt5tupleIJDpNSt25__strip_reference_wrapperINSt5decayIT_E4typeEE6__typeEEEDpOSB_, symObjAddr: 0x1EF8, symBinAddr: 0x1000041B0, symSize: 0x4C }
  - { offsetInCU: 0xD431, offset: 0xD431, size: 0x8, addend: 0x0, symName: __ZN9__gnu_cxx17__normal_iteratorIPcNSt7__cxx1112basic_stringIcSt11char_traitsIcESaIcEEEEppEv, symObjAddr: 0x1EB8, symBinAddr: 0x100004170, symSize: 0x28 }
  - { offsetInCU: 0xD439, offset: 0xD439, size: 0x8, addend: 0x0, symName: __ZNK9__gnu_cxx17__normal_iteratorIPcNSt7__cxx1112basic_stringIcSt11char_traitsIcESaIcEEEEdeEv, symObjAddr: 0x1EE0, symBinAddr: 0x100004198, symSize: 0x18 }
  - { offsetInCU: 0xD507, offset: 0xD507, size: 0x8, addend: 0x0, symName: __ZN9__gnu_cxxneIPcNSt7__cxx1112basic_stringIcSt11char_traitsIcESaIcEEEEEbRKNS_17__normal_iteratorIT_T0_EESD_, symObjAddr: 0x1E74, symBinAddr: 0x10000412C, symSize: 0x44 }
  - { offsetInCU: 0xD50F, offset: 0xD50F, size: 0x8, addend: 0x0, symName: __ZN9__gnu_cxx17__normal_iteratorIPcNSt7__cxx1112basic_stringIcSt11char_traitsIcESaIcEEEEppEv, symObjAddr: 0x1EB8, symBinAddr: 0x100004170, symSize: 0x28 }
  - { offsetInCU: 0xD56B, offset: 0xD56B, size: 0x8, addend: 0x0, symName: __ZNSt7__cxx1112basic_stringIcSt11char_traitsIcESaIcEEC1IS3_EEPKcRKS3_, symObjAddr: 0x1DD8, symBinAddr: 0x100004090, symSize: 0x9C }
  - { offsetInCU: 0xD573, offset: 0xD573, size: 0x8, addend: 0x0, symName: __ZN9__gnu_cxxneIPcNSt7__cxx1112basic_stringIcSt11char_traitsIcESaIcEEEEEbRKNS_17__normal_iteratorIT_T0_EESD_, symObjAddr: 0x1E74, symBinAddr: 0x10000412C, symSize: 0x44 }
  - { offsetInCU: 0xD5F2, offset: 0xD5F2, size: 0x8, addend: 0x0, symName: __ZNSt8__detail18__to_chars_10_implIjEEvPcjT_, symObjAddr: 0x1C54, symBinAddr: 0x100003F0C, symSize: 0x184 }
  - { offsetInCU: 0xD5FA, offset: 0xD5FA, size: 0x8, addend: 0x0, symName: __ZNSt7__cxx1112basic_stringIcSt11char_traitsIcESaIcEEC1IS3_EEPKcRKS3_, symObjAddr: 0x1DD8, symBinAddr: 0x100004090, symSize: 0x9C }
  - { offsetInCU: 0xD725, offset: 0xD725, size: 0x8, addend: 0x0, symName: __ZNSt7__cxx1112basic_stringIcSt11char_traitsIcESaIcEEC1IS3_EEmcRKS3_, symObjAddr: 0x1BE8, symBinAddr: 0x100003EA0, symSize: 0x6C }
  - { offsetInCU: 0xD72D, offset: 0xD72D, size: 0x8, addend: 0x0, symName: __ZNSt8__detail18__to_chars_10_implIjEEvPcjT_, symObjAddr: 0x1C54, symBinAddr: 0x100003F0C, symSize: 0x184 }
  - { offsetInCU: 0xD7A4, offset: 0xD7A4, size: 0x8, addend: 0x0, symName: __ZNSt7__cxx1112basic_stringIcSt11char_traitsIcESaIcEE12_Alloc_hiderD1Ev, symObjAddr: 0x1BBC, symBinAddr: 0x100003E74, symSize: 0x2C }
  - { offsetInCU: 0xD7AC, offset: 0xD7AC, size: 0x8, addend: 0x0, symName: __ZNSt7__cxx1112basic_stringIcSt11char_traitsIcESaIcEEC1IS3_EEmcRKS3_, symObjAddr: 0x1BE8, symBinAddr: 0x100003EA0, symSize: 0x6C }
  - { offsetInCU: 0xD838, offset: 0xD838, size: 0x8, addend: 0x0, symName: __ZNSt8__detail14__to_chars_lenIjEEjT_i, symObjAddr: 0x1AE4, symBinAddr: 0x100003D9C, symSize: 0xD8 }
  - { offsetInCU: 0xD840, offset: 0xD840, size: 0x8, addend: 0x0, symName: __ZNSt7__cxx1112basic_stringIcSt11char_traitsIcESaIcEE12_Alloc_hiderD1Ev, symObjAddr: 0x1BBC, symBinAddr: 0x100003E74, symSize: 0x2C }
  - { offsetInCU: 0xD8FE, offset: 0xD8FE, size: 0x8, addend: 0x0, symName: __ZN9__gnu_cxx6__stoaIlicJiEEET0_PFT_PKT1_PPS3_DpT2_EPKcS5_PmS9_, symObjAddr: 0x19DC, symBinAddr: 0x100003C94, symSize: 0x108 }
  - { offsetInCU: 0xD906, offset: 0xD906, size: 0x8, addend: 0x0, symName: __ZNSt8__detail14__to_chars_lenIjEEjT_i, symObjAddr: 0x1AE4, symBinAddr: 0x100003D9C, symSize: 0xD8 }
  - { offsetInCU: 0xDA7A, offset: 0xDA7A, size: 0x8, addend: 0x0, symName: __ZZN9__gnu_cxx6__stoaIlicJiEEET0_PFT_PKT1_PPS3_DpT2_EPKcS5_PmS9_EN11_Save_errnoC1Ev, symObjAddr: 0x191C, symBinAddr: 0x100003BD4, symSize: 0x30 }
  - { offsetInCU: 0xDA82, offset: 0xDA82, size: 0x8, addend: 0x0, symName: __ZZN9__gnu_cxx6__stoaIlicJiEEET0_PFT_PKT1_PPS3_DpT2_EPKcS5_PmS9_EN11_Save_errnoD1Ev, symObjAddr: 0x194C, symBinAddr: 0x100003C04, symSize: 0x50 }
  - { offsetInCU: 0xDAA9, offset: 0xDAA9, size: 0x8, addend: 0x0, symName: __ZZN9__gnu_cxx6__stoaIlicJiEEET0_PFT_PKT1_PPS3_DpT2_EPKcS5_PmS9_EN11_Save_errnoD1Ev, symObjAddr: 0x194C, symBinAddr: 0x100003C04, symSize: 0x50 }
  - { offsetInCU: 0xDAB1, offset: 0xDAB1, size: 0x8, addend: 0x0, symName: __ZZN9__gnu_cxx6__stoaIlicJiEEET0_PFT_PKT1_PPS3_DpT2_EPKcS5_PmS9_EN10_Range_chk6_S_chkElSt17integral_constantIbLb1EE, symObjAddr: 0x199C, symBinAddr: 0x100003C54, symSize: 0x40 }
  - { offsetInCU: 0xDB48, offset: 0xDB48, size: 0x8, addend: 0x0, symName: __ZZN9__gnu_cxx6__stoaIlicJiEEET0_PFT_PKT1_PPS3_DpT2_EPKcS5_PmS9_EN10_Range_chk6_S_chkElSt17integral_constantIbLb1EE, symObjAddr: 0x199C, symBinAddr: 0x100003C54, symSize: 0x40 }
  - { offsetInCU: 0xDB50, offset: 0xDB50, size: 0x8, addend: 0x0, symName: __ZN9__gnu_cxx6__stoaIlicJiEEET0_PFT_PKT1_PPS3_DpT2_EPKcS5_PmS9_, symObjAddr: 0x19DC, symBinAddr: 0x100003C94, symSize: 0x108 }
  - { offsetInCU: 0xDB5F, offset: 0xDB5F, size: 0x8, addend: 0x0, symName: __ZN9__gnu_cxx11char_traitsIcE6lengthEPKc, symObjAddr: 0x18C0, symBinAddr: 0x100003B78, symSize: 0x5C }
  - { offsetInCU: 0xDB67, offset: 0xDB67, size: 0x8, addend: 0x0, symName: __ZZN9__gnu_cxx6__stoaIlicJiEEET0_PFT_PKT1_PPS3_DpT2_EPKcS5_PmS9_EN11_Save_errnoC1Ev, symObjAddr: 0x191C, symBinAddr: 0x100003BD4, symSize: 0x30 }
  - { offsetInCU: 0xDBAD, offset: 0xDBAD, size: 0x8, addend: 0x0, symName: _main, symObjAddr: 0x15B8, symBinAddr: 0x100003870, symSize: 0x308 }
  - { offsetInCU: 0xDBB5, offset: 0xDBB5, size: 0x8, addend: 0x0, symName: __ZN9__gnu_cxx11char_traitsIcE6lengthEPKc, symObjAddr: 0x18C0, symBinAddr: 0x100003B78, symSize: 0x5C }
  - { offsetInCU: 0xDDE5, offset: 0xDDE5, size: 0x8, addend: 0x0, symName: __Z15get_last_numberNSt7__cxx1112basic_stringIcSt11char_traitsIcESaIcEEE, symObjAddr: 0x13B0, symBinAddr: 0x100003668, symSize: 0x208 }
  - { offsetInCU: 0xDDED, offset: 0xDDED, size: 0x8, addend: 0x0, symName: _main, symObjAddr: 0x15B8, symBinAddr: 0x100003870, symSize: 0x308 }
  - { offsetInCU: 0xDF05, offset: 0xDF05, size: 0x8, addend: 0x0, symName: __Z16get_first_numberNSt7__cxx1112basic_stringIcSt11char_traitsIcESaIcEEE, symObjAddr: 0x11A8, symBinAddr: 0x100003460, symSize: 0x208 }
  - { offsetInCU: 0xDF0D, offset: 0xDF0D, size: 0x8, addend: 0x0, symName: __Z15get_last_numberNSt7__cxx1112basic_stringIcSt11char_traitsIcESaIcEEE, symObjAddr: 0x13B0, symBinAddr: 0x100003668, symSize: 0x208 }
  - { offsetInCU: 0xE029, offset: 0xE029, size: 0x8, addend: 0x0, symName: __Z19get_last_string_intNSt7__cxx1112basic_stringIcSt11char_traitsIcESaIcEEE, symObjAddr: 0xC70, symBinAddr: 0x100002F28, symSize: 0x538 }
  - { offsetInCU: 0xE031, offset: 0xE031, size: 0x8, addend: 0x0, symName: __Z16get_first_numberNSt7__cxx1112basic_stringIcSt11char_traitsIcESaIcEEE, symObjAddr: 0x11A8, symBinAddr: 0x100003460, symSize: 0x208 }
  - { offsetInCU: 0xE5F9, offset: 0xE5F9, size: 0x8, addend: 0x0, symName: __Z20get_first_string_intNSt7__cxx1112basic_stringIcSt11char_traitsIcESaIcEEE, symObjAddr: 0x71C, symBinAddr: 0x1000029D4, symSize: 0x554 }
  - { offsetInCU: 0xE601, offset: 0xE601, size: 0x8, addend: 0x0, symName: __Z19get_last_string_intNSt7__cxx1112basic_stringIcSt11char_traitsIcESaIcEEE, symObjAddr: 0xC70, symBinAddr: 0x100002F28, symSize: 0x538 }
  - { offsetInCU: 0xEBC8, offset: 0xEBC8, size: 0x8, addend: 0x0, symName: __ZNSt6vectorINSt7__cxx1112basic_stringIcSt11char_traitsIcESaIcEEESaIS5_EEC1Ev, symObjAddr: 0x6FC, symBinAddr: 0x1000029B4, symSize: 0x20 }
  - { offsetInCU: 0xEBD0, offset: 0xEBD0, size: 0x8, addend: 0x0, symName: __Z20get_first_string_intNSt7__cxx1112basic_stringIcSt11char_traitsIcESaIcEEE, symObjAddr: 0x71C, symBinAddr: 0x1000029D4, symSize: 0x554 }
  - { offsetInCU: 0xEC16, offset: 0xEC16, size: 0x8, addend: 0x0, symName: __ZNSt12_Vector_baseINSt7__cxx1112basic_stringIcSt11char_traitsIcESaIcEEESaIS5_EEC2Ev, symObjAddr: 0x6DC, symBinAddr: 0x100002994, symSize: 0x20 }
  - { offsetInCU: 0xEC1E, offset: 0xEC1E, size: 0x8, addend: 0x0, symName: __ZNSt6vectorINSt7__cxx1112basic_stringIcSt11char_traitsIcESaIcEEESaIS5_EEC1Ev, symObjAddr: 0x6FC, symBinAddr: 0x1000029B4, symSize: 0x20 }
  - { offsetInCU: 0xEC7C, offset: 0xEC7C, size: 0x8, addend: 0x0, symName: __ZNSt12_Vector_baseINSt7__cxx1112basic_stringIcSt11char_traitsIcESaIcEEESaIS5_EE12_Vector_implD1Ev, symObjAddr: 0x6B0, symBinAddr: 0x100002968, symSize: 0x2C }
  - { offsetInCU: 0xEC84, offset: 0xEC84, size: 0x8, addend: 0x0, symName: __ZNSt12_Vector_baseINSt7__cxx1112basic_stringIcSt11char_traitsIcESaIcEEESaIS5_EEC2Ev, symObjAddr: 0x6DC, symBinAddr: 0x100002994, symSize: 0x20 }
  - { offsetInCU: 0xECCB, offset: 0xECCB, size: 0x8, addend: 0x0, symName: __Z16get_last_int_intNSt7__cxx1112basic_stringIcSt11char_traitsIcESaIcEEE, symObjAddr: 0x574, symBinAddr: 0x10000282C, symSize: 0x13C }
  - { offsetInCU: 0xECD3, offset: 0xECD3, size: 0x8, addend: 0x0, symName: __ZNSt12_Vector_baseINSt7__cxx1112basic_stringIcSt11char_traitsIcESaIcEEESaIS5_EE12_Vector_implD1Ev, symObjAddr: 0x6B0, symBinAddr: 0x100002968, symSize: 0x2C }
  - { offsetInCU: 0xEDE6, offset: 0xEDE6, size: 0x8, addend: 0x0, symName: __Z17get_first_int_intNSt7__cxx1112basic_stringIcSt11char_traitsIcESaIcEEE, symObjAddr: 0x434, symBinAddr: 0x1000026EC, symSize: 0x140 }
  - { offsetInCU: 0xEDEE, offset: 0xEDEE, size: 0x8, addend: 0x0, symName: __Z16get_last_int_intNSt7__cxx1112basic_stringIcSt11char_traitsIcESaIcEEE, symObjAddr: 0x574, symBinAddr: 0x10000282C, symSize: 0x13C }
  - { offsetInCU: 0xEF14, offset: 0xEF14, size: 0x8, addend: 0x0, symName: __ZNSt5tupleIJNSt7__cxx1112basic_stringIcSt11char_traitsIcESaIcEEEiEED1Ev, symObjAddr: 0x414, symBinAddr: 0x1000026CC, symSize: 0x20 }
  - { offsetInCU: 0xEF1C, offset: 0xEF1C, size: 0x8, addend: 0x0, symName: __Z17get_first_int_intNSt7__cxx1112basic_stringIcSt11char_traitsIcESaIcEEE, symObjAddr: 0x434, symBinAddr: 0x1000026EC, symSize: 0x140 }
  - { offsetInCU: 0xEF79, offset: 0xEF79, size: 0x8, addend: 0x0, symName: __ZNSt11_Tuple_implILm0EJNSt7__cxx1112basic_stringIcSt11char_traitsIcESaIcEEEiEED2Ev, symObjAddr: 0x3F0, symBinAddr: 0x1000026A8, symSize: 0x24 }
  - { offsetInCU: 0xEF81, offset: 0xEF81, size: 0x8, addend: 0x0, symName: __ZNSt5tupleIJNSt7__cxx1112basic_stringIcSt11char_traitsIcESaIcEEEiEED1Ev, symObjAddr: 0x414, symBinAddr: 0x1000026CC, symSize: 0x20 }
  - { offsetInCU: 0xEFD1, offset: 0xEFD1, size: 0x8, addend: 0x0, symName: __ZNSt10_Head_baseILm0ENSt7__cxx1112basic_stringIcSt11char_traitsIcESaIcEEELb0EED2Ev, symObjAddr: 0x3D0, symBinAddr: 0x100002688, symSize: 0x20 }
  - { offsetInCU: 0xEFD9, offset: 0xEFD9, size: 0x8, addend: 0x0, symName: __ZNSt11_Tuple_implILm0EJNSt7__cxx1112basic_stringIcSt11char_traitsIcESaIcEEEiEED2Ev, symObjAddr: 0x3F0, symBinAddr: 0x1000026A8, symSize: 0x24 }
  - { offsetInCU: 0xEFFD, offset: 0xEFFD, size: 0x8, addend: 0x0, symName: __Z10get_numberNSt7__cxx1112basic_stringIcSt11char_traitsIcESaIcEEE, symObjAddr: 0x208, symBinAddr: 0x1000024C0, symSize: 0x1C8 }
  - { offsetInCU: 0xF005, offset: 0xF005, size: 0x8, addend: 0x0, symName: __ZNSt10_Head_baseILm0ENSt7__cxx1112basic_stringIcSt11char_traitsIcESaIcEEELb0EED2Ev, symObjAddr: 0x3D0, symBinAddr: 0x100002688, symSize: 0x20 }
  - { offsetInCU: 0xF1B6, offset: 0xF1B6, size: 0x8, addend: 0x0, symName: __ZNSt7__cxx119to_stringEi, symObjAddr: 0x144, symBinAddr: 0x1000023FC, symSize: 0xC4 }
  - { offsetInCU: 0xF1BE, offset: 0xF1BE, size: 0x8, addend: 0x0, symName: __Z10get_numberNSt7__cxx1112basic_stringIcSt11char_traitsIcESaIcEEE, symObjAddr: 0x208, symBinAddr: 0x1000024C0, symSize: 0x1C8 }
  - { offsetInCU: 0xF2D7, offset: 0xF2D7, size: 0x8, addend: 0x0, symName: __ZNSt7__cxx114stoiERKNS_12basic_stringIcSt11char_traitsIcESaIcEEEPmi, symObjAddr: 0x100, symBinAddr: 0x1000023B8, symSize: 0x44 }
  - { offsetInCU: 0xF2DF, offset: 0xF2DF, size: 0x8, addend: 0x0, symName: __ZNSt7__cxx119to_stringEi, symObjAddr: 0x144, symBinAddr: 0x1000023FC, symSize: 0xC4 }
  - { offsetInCU: 0xF2EF, offset: 0xF2EF, size: 0x8, addend: 0x0, symName: __ZNSt11char_traitsIcE6lengthEPKc, symObjAddr: 0xC0, symBinAddr: 0x100002378, symSize: 0x40 }
  - { offsetInCU: 0xF2F7, offset: 0xF2F7, size: 0x8, addend: 0x0, symName: __ZNSt7__cxx114stoiERKNS_12basic_stringIcSt11char_traitsIcESaIcEEEPmi, symObjAddr: 0x100, symBinAddr: 0x1000023B8, symSize: 0x44 }
  - { offsetInCU: 0xF32F, offset: 0xF32F, size: 0x8, addend: 0x0, symName: __ZdlPvS_, symObjAddr: 0xA8, symBinAddr: 0x100002360, symSize: 0x18 }
  - { offsetInCU: 0xF337, offset: 0xF337, size: 0x8, addend: 0x0, symName: __ZNSt11char_traitsIcE6lengthEPKc, symObjAddr: 0xC0, symBinAddr: 0x100002378, symSize: 0x40 }
  - { offsetInCU: 0xF36C, offset: 0xF36C, size: 0x8, addend: 0x0, symName: __ZnwmPv, symObjAddr: 0x90, symBinAddr: 0x100002348, symSize: 0x18 }
  - { offsetInCU: 0xF374, offset: 0xF374, size: 0x8, addend: 0x0, symName: __ZdlPvS_, symObjAddr: 0xA8, symBinAddr: 0x100002360, symSize: 0x18 }
  - { offsetInCU: 0xF3C1, offset: 0xF3C1, size: 0x8, addend: 0x0, symName: __Z9__isctypeim, symObjAddr: 0x8, symBinAddr: 0x1000022C0, symSize: 0x68 }
  - { offsetInCU: 0xF3C9, offset: 0xF3C9, size: 0x8, addend: 0x0, symName: __Z7isdigiti, symObjAddr: 0x70, symBinAddr: 0x100002328, symSize: 0x20 }
  - { offsetInCU: 0xF431, offset: 0xF431, size: 0x8, addend: 0x0, symName: __ZSt23__is_constant_evaluatedv, symObjAddr: 0x0, symBinAddr: 0x1000022B8, symSize: 0x8 }
  - { offsetInCU: 0xF439, offset: 0xF439, size: 0x8, addend: 0x0, symName: __Z9__isctypeim, symObjAddr: 0x8, symBinAddr: 0x1000022C0, symSize: 0x68 }
...
